target datalayout = "e-m:e-p270:32:32-p271:32:32-p272:64:64-i64:64-i128:128-f80:128-n8:16:32:64-S128"
target triple = "x86_64-pc-linux-gnu"

%struct._connParams = type { ptr, ptr, ptr, ptr, i32, ptr }
%struct._restoreOptions = type { i32, i32, i32, i32, i32, i32, ptr, ptr, i32, i32, i32, i32, i32, i32, i32, i32, i32, i32, ptr, i32, i32, i32, ptr, i32, i32, ptr, i32, ptr, i32, i32, i32, i32, i32, %struct.SimpleStringList, %struct.SimpleStringList, %struct.SimpleStringList, %struct.SimpleStringList, %struct.SimpleStringList, %struct.SimpleStringList, i32, %struct._connParams, i32, i32, %struct.pg_compress_specification, i32, i8, i32, ptr, i32, i32, i32, i8, i8 }
%struct.SimpleStringList = type { ptr, ptr }
%struct.pg_compress_specification = type { i32, i32, i32, i32, i8, ptr }
%struct._archiveHandle = type { %struct.Archive, i32, ptr, ptr, i64, i64, i32, %struct.sqlparseInfo, i64, i32, ptr, i64, i64, i64, ptr, ptr, ptr, ptr, ptr, ptr, ptr, ptr, ptr, ptr, ptr, ptr, ptr, ptr, ptr, ptr, ptr, ptr, ptr, ptr, ptr, ptr, ptr, ptr, ptr, ptr, ptr, ptr, ptr, ptr, i32, i32, i8, i32, i8, i32, ptr, ptr, ptr, ptr, i32, i32, ptr, ptr, ptr, %struct.pg_compress_specification, i8, i32, i32, ptr, ptr, ptr, ptr, ptr, i32, ptr, i64, i64, i32, i32, i32, i32, ptr, ptr }
%struct.Archive = type { ptr, ptr, i32, ptr, i32, i8, i32, i32, i32, ptr, i32, i8, ptr, ptr, i8, i32, ptr }
%struct.sqlparseInfo = type { i32, i8, ptr }

@.str.40 = private unnamed_addr constant [10 x i8] c"COMMIT;\0A\0A\00", align 1
@.str.63 = private unnamed_addr constant [25 x i8] c"restored %d large object\00", align 1
@.str.64 = private unnamed_addr constant [26 x i8] c"restored %d large objects\00", align 1

; Function Attrs: nounwind uwtable
define dso_local void @EndRestoreLOs(ptr noundef %0) #0 {
  %2 = alloca ptr, align 8
  %3 = alloca ptr, align 8
  store ptr %0, ptr %2, align 8
  call void @llvm.lifetime.start.p0(i64 8, ptr %3) #11
  %4 = load ptr, ptr %2, align 8
  %5 = getelementptr inbounds nuw %struct._archiveHandle, ptr %4, i32 0, i32 0
  %6 = getelementptr inbounds nuw %struct.Archive, ptr %5, i32 0, i32 1
  %7 = load ptr, ptr %6, align 8
  store ptr %7, ptr %3, align 8
  %8 = load ptr, ptr %3, align 8
  %9 = getelementptr inbounds nuw %struct._restoreOptions, ptr %8, i32 0, i32 45
  %10 = load i8, ptr %9, align 4, !range !4, !noundef !5
  %11 = trunc i8 %10 to i1
  br i1 %11, label %29, label %12

12:                                               ; preds = %1
  %13 = load ptr, ptr %3, align 8
  %14 = getelementptr inbounds nuw %struct._restoreOptions, ptr %13, i32 0, i32 46
  %15 = load i32, ptr %14, align 8
  %16 = icmp sgt i32 %15, 0
  br i1 %16, label %29, label %17

17:                                               ; preds = %12
  %18 = load ptr, ptr %2, align 8
  %19 = getelementptr inbounds nuw %struct._archiveHandle, ptr %18, i32 0, i32 42
  %20 = load ptr, ptr %19, align 8
  %21 = icmp ne ptr %20, null
  br i1 %21, label %22, label %25

22:                                               ; preds = %17
  %23 = load ptr, ptr %2, align 8
  %24 = getelementptr inbounds nuw %struct._archiveHandle, ptr %23, i32 0, i32 0
  call void @CommitTransaction(ptr noundef %24)
  br label %28

25:                                               ; preds = %17
  %26 = load ptr, ptr %2, align 8
  %27 = call i32 (ptr, ptr, ...) @ahprintf(ptr noundef %26, ptr noundef @.str.40)
  br label %28

28:                                               ; preds = %25, %22
  br label %29

29:                                               ; preds = %28, %12, %1
  %30 = load ptr, ptr %2, align 8
  %31 = getelementptr inbounds nuw %struct._archiveHandle, ptr %30, i32 0, i32 49
  %32 = load i32, ptr %31, align 4
  %33 = icmp eq i32 %32, 1
  %34 = select i1 %33, ptr @.str.63, ptr @.str.64
  %35 = load ptr, ptr %2, align 8
  %36 = getelementptr inbounds nuw %struct._archiveHandle, ptr %35, i32 0, i32 49
  %37 = load i32, ptr %36, align 4
  call void (i32, i32, ptr, ...) @pg_log_generic(i32 noundef 2, i32 noundef 0, ptr noundef %34, i32 noundef %37)
  call void @llvm.lifetime.end.p0(i64 8, ptr %3) #11
  ret void
}